target datalayout = "e-m:e-p270:32:32-p271:32:32-p272:64:64-i64:64-i128:128-f80:128-n8:16:32:64-S128"
target triple = "x86_64-unknown-linux-gnu"

%"class.std::map" = type { %"class.std::_Rb_tree" }
%"class.std::_Rb_tree" = type { %"struct.std::_Rb_tree<grpc_core::(anonymous namespace)::Chttp2ServerListener::ActiveConnection *, std::pair<grpc_core::(anonymous namespace)::Chttp2ServerListener::ActiveConnection *const, std::unique_ptr<grpc_core::(anonymous namespace)::Chttp2ServerListener::ActiveConnection, grpc_core::OrphanableDelete>>, std::_Select1st<std::pair<grpc_core::(anonymous namespace)::Chttp2ServerListener::ActiveConnection *const, std::unique_ptr<grpc_core::(anonymous namespace)::Chttp2ServerListener::ActiveConnection, grpc_core::OrphanableDelete>>>, std::less<grpc_core::(anonymous namespace)::Chttp2ServerListener::ActiveConnection *>>::_Rb_tree_impl" }
%"struct.std::_Rb_tree<grpc_core::(anonymous namespace)::Chttp2ServerListener::ActiveConnection *, std::pair<grpc_core::(anonymous namespace)::Chttp2ServerListener::ActiveConnection *const, std::unique_ptr<grpc_core::(anonymous namespace)::Chttp2ServerListener::ActiveConnection, grpc_core::OrphanableDelete>>, std::_Select1st<std::pair<grpc_core::(anonymous namespace)::Chttp2ServerListener::ActiveConnection *const, std::unique_ptr<grpc_core::(anonymous namespace)::Chttp2ServerListener::ActiveConnection, grpc_core::OrphanableDelete>>>, std::less<grpc_core::(anonymous namespace)::Chttp2ServerListener::ActiveConnection *>>::_Rb_tree_impl" = type { %"struct.std::_Rb_tree_key_compare", %"struct.std::_Rb_tree_header" }
%"struct.std::_Rb_tree_key_compare" = type { %"struct.std::less" }
%"struct.std::less" = type { i8 }
%"struct.std::_Rb_tree_header" = type { %"struct.std::_Rb_tree_node_base", i64 }
%"struct.std::_Rb_tree_node_base" = type { i32, ptr, ptr, ptr }

; Function Attrs: mustprogress nounwind uwtable
define internal void @_ZNSt15__new_allocatorISt13_Rb_tree_nodeISt4pairIKPN9grpc_core12_GLOBAL__N_120Chttp2ServerListener16ActiveConnectionESt10unique_ptrIS5_NS2_16OrphanableDeleteEEEEED2Ev(ptr noundef nonnull align 1 dereferenceable(1) %this) unnamed_addr #5 align 2 {
entry:
  %this.addr = alloca ptr, align 8
  store ptr %this, ptr %this.addr, align 8
  ret void
}

; Function Attrs: mustprogress nounwind uwtable
define internal void @_ZNSaISt13_Rb_tree_nodeISt4pairIKPN9grpc_core12_GLOBAL__N_120Chttp2ServerListener16ActiveConnectionESt10unique_ptrIS4_NS1_16OrphanableDeleteEEEEED2Ev(ptr noundef nonnull align 1 dereferenceable(1) %this) unnamed_addr #5 align 2 {
entry:
  %this.addr = alloca ptr, align 8
  store ptr %this, ptr %this.addr, align 8
  %this1 = load ptr, ptr %this.addr, align 8
  call void @_ZNSt15__new_allocatorISt13_Rb_tree_nodeISt4pairIKPN9grpc_core12_GLOBAL__N_120Chttp2ServerListener16ActiveConnectionESt10unique_ptrIS5_NS2_16OrphanableDeleteEEEEED2Ev(ptr noundef nonnull align 1 dereferenceable(1) %this1) #3
  ret void
}

; Function Attrs: mustprogress nounwind uwtable
define internal noundef ptr @_ZNKSt8_Rb_treeIPN9grpc_core12_GLOBAL__N_120Chttp2ServerListener16ActiveConnectionESt4pairIKS4_St10unique_ptrIS3_NS0_16OrphanableDeleteEEESt10_Select1stISA_ESt4lessIS4_ESaISA_EE9_M_mbeginEv(ptr noundef nonnull align 8 dereferenceable(48) %this) #5 align 2 {
entry:
  %this.addr = alloca ptr, align 8
  store ptr %this, ptr %this.addr, align 8
  %this1 = load ptr, ptr %this.addr, align 8
  %_M_impl = getelementptr inbounds %"class.std::_Rb_tree", ptr %this1, i32 0, i32 0
  %add.ptr = getelementptr inbounds i8, ptr %_M_impl, i64 8
  %_M_header = getelementptr inbounds %"struct.std::_Rb_tree_header", ptr %add.ptr, i32 0, i32 0
  %_M_parent = getelementptr inbounds %"struct.std::_Rb_tree_node_base", ptr %_M_header, i32 0, i32 1
  %0 = load ptr, ptr %_M_parent, align 8
  ret ptr %0
}

; Function Attrs: mustprogress nounwind uwtable
define internal void @_ZNSt8_Rb_treeIPN9grpc_core12_GLOBAL__N_120Chttp2ServerListener16ActiveConnectionESt4pairIKS4_St10unique_ptrIS3_NS0_16OrphanableDeleteEEESt10_Select1stISA_ESt4lessIS4_ESaISA_EE13_Rb_tree_implISE_Lb1EED2Ev(ptr noundef nonnull align 8 dereferenceable(48) %this) unnamed_addr #5 align 2 {
entry:
  %this.addr = alloca ptr, align 8
  store ptr %this, ptr %this.addr, align 8
  %this1 = load ptr, ptr %this.addr, align 8
  call void @_ZNSaISt13_Rb_tree_nodeISt4pairIKPN9grpc_core12_GLOBAL__N_120Chttp2ServerListener16ActiveConnectionESt10unique_ptrIS4_NS1_16OrphanableDeleteEEEEED2Ev(ptr noundef nonnull align 1 dereferenceable(1) %this1) #3
  ret void
}

; Function Attrs: mustprogress nounwind uwtable
define internal noundef ptr @_ZNSt8_Rb_treeIPN9grpc_core12_GLOBAL__N_120Chttp2ServerListener16ActiveConnectionESt4pairIKS4_St10unique_ptrIS3_NS0_16OrphanableDeleteEEESt10_Select1stISA_ESt4lessIS4_ESaISA_EE8_M_beginEv(ptr noundef nonnull align 8 dereferenceable(48) %this) #5 align 2 {
entry:
  %this.addr = alloca ptr, align 8
  store ptr %this, ptr %this.addr, align 8
  %this1 = load ptr, ptr %this.addr, align 8
  %call = call noundef ptr @_ZNKSt8_Rb_treeIPN9grpc_core12_GLOBAL__N_120Chttp2ServerListener16ActiveConnectionESt4pairIKS4_St10unique_ptrIS3_NS0_16OrphanableDeleteEEESt10_Select1stISA_ESt4lessIS4_ESaISA_EE9_M_mbeginEv(ptr noundef nonnull align 8 dereferenceable(48) %this1) #3
  ret ptr %call
}

; Function Attrs: mustprogress nounwind uwtable
define internal void @_ZNSt8_Rb_treeIPN9grpc_core12_GLOBAL__N_120Chttp2ServerListener16ActiveConnectionESt4pairIKS4_St10unique_ptrIS3_NS0_16OrphanableDeleteEEESt10_Select1stISA_ESt4lessIS4_ESaISA_EED2Ev(ptr noundef nonnull align 8 dereferenceable(48) %this) unnamed_addr #5 align 2 personality ptr @__gxx_personality_v0 {
entry:
  %this.addr = alloca ptr, align 8
  store ptr %this, ptr %this.addr, align 8
  %this1 = load ptr, ptr %this.addr, align 8
  %call = call noundef ptr @_ZNSt8_Rb_treeIPN9grpc_core12_GLOBAL__N_120Chttp2ServerListener16ActiveConnectionESt4pairIKS4_St10unique_ptrIS3_NS0_16OrphanableDeleteEEESt10_Select1stISA_ESt4lessIS4_ESaISA_EE8_M_beginEv(ptr noundef nonnull align 8 dereferenceable(48) %this1) #3
  invoke void @_ZNSt8_Rb_treeIPN9grpc_core12_GLOBAL__N_120Chttp2ServerListener16ActiveConnectionESt4pairIKS4_St10unique_ptrIS3_NS0_16OrphanableDeleteEEESt10_Select1stISA_ESt4lessIS4_ESaISA_EE8_M_eraseEPSt13_Rb_tree_nodeISA_E(ptr noundef nonnull align 8 dereferenceable(48) %this1, ptr noundef %call)
          to label %invoke.cont unwind label %terminate.lpad

invoke.cont:                                      ; preds = %entry
  %_M_impl = getelementptr inbounds %"class.std::_Rb_tree", ptr %this1, i32 0, i32 0
  call void @_ZNSt8_Rb_treeIPN9grpc_core12_GLOBAL__N_120Chttp2ServerListener16ActiveConnectionESt4pairIKS4_St10unique_ptrIS3_NS0_16OrphanableDeleteEEESt10_Select1stISA_ESt4lessIS4_ESaISA_EE13_Rb_tree_implISE_Lb1EED2Ev(ptr noundef nonnull align 8 dereferenceable(48) %_M_impl) #3
  ret void

terminate.lpad:                                   ; preds = %entry
  %0 = landingpad { ptr, i32 }
          catch ptr null
  %1 = extractvalue { ptr, i32 } %0, 0
  call void @__clang_call_terminate(ptr %1) #18
  unreachable
}

; Function Attrs: mustprogress nounwind uwtable
define internal void @_ZNSt3mapIPN9grpc_core12_GLOBAL__N_120Chttp2ServerListener16ActiveConnectionESt10unique_ptrIS3_NS0_16OrphanableDeleteEESt4lessIS4_ESaISt4pairIKS4_S7_EEED2Ev(ptr noundef nonnull align 8 dereferenceable(48) %this) unnamed_addr #5 align 2 {
entry:
  %this.addr = alloca ptr, align 8
  store ptr %this, ptr %this.addr, align 8
  %this1 = load ptr, ptr %this.addr, align 8
  %_M_t = getelementptr inbounds %"class.std::map", ptr %this1, i32 0, i32 0
  call void @_ZNSt8_Rb_treeIPN9grpc_core12_GLOBAL__N_120Chttp2ServerListener16ActiveConnectionESt4pairIKS4_St10unique_ptrIS3_NS0_16OrphanableDeleteEEESt10_Select1stISA_ESt4lessIS4_ESaISA_EED2Ev(ptr noundef nonnull align 8 dereferenceable(48) %_M_t) #3
  ret void
}