; Function Attrs: mustprogress nounwind uwtable
define internal fastcc void @_ZNSt3mapIPN9grpc_core12_GLOBAL__N_120Chttp2ServerListener16ActiveConnectionESt10unique_ptrIS3_NS0_16OrphanableDeleteEESt4lessIS4_ESaISt4pairIKS4_S7_EEED2Ev(ptr nocapture noundef nonnull readonly align 8 dereferenceable(48) %this) unnamed_addr #5 align 2 personality ptr @__gxx_personality_v0 {
entry:
  %0 = getelementptr inbounds i8, ptr %this, i64 16
  %this.val.i = load ptr, ptr %0, align 8
  invoke fastcc void @_ZNSt8_Rb_treeIPN9grpc_core12_GLOBAL__N_120Chttp2ServerListener16ActiveConnectionESt4pairIKS4_St10unique_ptrIS3_NS0_16OrphanableDeleteEEESt10_Select1stISA_ESt4lessIS4_ESaISA_EE8_M_eraseEPSt13_Rb_tree_nodeISA_E(ptr noundef %this.val.i)
          to label %_ZNSt8_Rb_treeIPN9grpc_core12_GLOBAL__N_120Chttp2ServerListener16ActiveConnectionESt4pairIKS4_St10unique_ptrIS3_NS0_16OrphanableDeleteEEESt10_Select1stISA_ESt4lessIS4_ESaISA_EED2Ev.exit unwind label %terminate.lpad.i

terminate.lpad.i:                                 ; preds = %entry
  %1 = landingpad { ptr, i32 }
          catch ptr null
  %2 = extractvalue { ptr, i32 } %1, 0
  tail call void @__clang_call_terminate(ptr %2) #24
  unreachable

_ZNSt8_Rb_treeIPN9grpc_core12_GLOBAL__N_120Chttp2ServerListener16ActiveConnectionESt4pairIKS4_St10unique_ptrIS3_NS0_16OrphanableDeleteEEESt10_Select1stISA_ESt4lessIS4_ESaISA_EED2Ev.exit: ; preds = %entry
  ret void
}